; Function Attrs: mustprogress uwtable
define noundef nonnull align 8 dereferenceable(8) ptr @_ZN6icu_758numparse4impl26AffixTokenMatcherWarehouse8plusSignEv(ptr noundef nonnull align 8 dereferenceable(1288) %this) local_unnamed_addr #1 align 2 {
entry:
  %ref.tmp = alloca %"class.icu_75::numparse::impl::PlusSignMatcher", align 8
  %0 = load ptr, ptr %this, align 8
  %dfs = getelementptr inbounds i8, ptr %0, i64 8
  %1 = load ptr, ptr %dfs, align 8
  call void @_ZN6icu_758numparse4impl15PlusSignMatcherC1ERKNS_20DecimalFormatSymbolsEb(ptr noundef nonnull align 8 dereferenceable(81) %ref.tmp, ptr noundef nonnull align 8 dereferenceable(2883) %1, i1 noundef zeroext true)
  %fPlusSign = getelementptr inbounds i8, ptr %this, i64 96
  %fString.i.i = getelementptr inbounds i8, ptr %this, i64 104
  %fString2.i.i = getelementptr inbounds i8, ptr %ref.tmp, i64 8
  %call3.i.i = call noundef nonnull align 8 dereferenceable(64) ptr @_ZN6icu_7513UnicodeStringaSEOS0_(ptr noundef nonnull align 8 dereferenceable(64) %fString.i.i, ptr noundef nonnull align 8 dereferenceable(64) %fString2.i.i) #16
  %fUniSet.i.i = getelementptr inbounds i8, ptr %ref.tmp, i64 72
  %2 = load ptr, ptr %fUniSet.i.i, align 8
  %fUniSet4.i.i = getelementptr inbounds i8, ptr %this, i64 168
  store ptr %2, ptr %fUniSet4.i.i, align 8
  %fAllowTrailing.i = getelementptr inbounds i8, ptr %ref.tmp, i64 80
  %3 = load i8, ptr %fAllowTrailing.i, align 8
  %4 = and i8 %3, 1
  %fAllowTrailing2.i = getelementptr inbounds i8, ptr %this, i64 176
  store i8 %4, ptr %fAllowTrailing2.i, align 8
  store ptr getelementptr inbounds ({ [11 x ptr] }, ptr @_ZTVN6icu_758numparse4impl13SymbolMatcherE, i64 0, i32 0, i64 2), ptr %ref.tmp, align 8
  call void @_ZN6icu_7513UnicodeStringD1Ev(ptr noundef nonnull align 8 dereferenceable(64) %fString2.i.i) #16
  call void @_ZN6icu_758numparse4impl18NumberParseMatcherD2Ev(ptr noundef nonnull align 8 dereferenceable(8) %ref.tmp) #16
  ret ptr %fPlusSign
}